; Function Attrs: nounwind uwtable
define dso_local range(i32 -1, 7104) i32 @fed_mgr_update_job_cluster_features(ptr noundef %0, ptr noundef %1) local_unnamed_addr #0 {
  %3 = load ptr, ptr @fed_mgr_cluster_rec, align 8
  %.not.i = icmp eq ptr %3, null
  br i1 %.not.i, label %14, label %4

4:                                                ; preds = %2
  %5 = getelementptr inbounds nuw i8, ptr %0, i64 280
  %6 = load ptr, ptr %5, align 8
  %.not4.i = icmp eq ptr %6, null
  br i1 %.not4.i, label %10, label %7

7:                                                ; preds = %4
  %8 = getelementptr inbounds nuw i8, ptr %0, i64 392
  %9 = load i32, ptr %8, align 8
  %.not5.i = icmp ult i32 %9, 67108864
  br i1 %.not5.i, label %10, label %_is_fed_job.exit

10:                                               ; preds = %7, %4
  %11 = tail call i32 @get_log_level() #16
  %12 = icmp sgt i32 %11, 5
  br i1 %12, label %13, label %14

13:                                               ; preds = %10
  tail call void (i32, ptr, ...) @log_var(i32 noundef 6, ptr noundef nonnull @.str.183, ptr noundef nonnull %0) #16
  br label %14

14:                                               ; preds = %2, %13, %10
  tail call void (ptr, ...) @sched_info(ptr noundef nonnull @.str.65) #16
  br label %51

_is_fed_job.exit:                                 ; preds = %7
  %15 = getelementptr inbounds nuw i8, ptr %0, i64 448
  %16 = load i32, ptr %15, align 8
  %17 = and i32 %16, 255
  %18 = icmp eq i32 %17, 0
  br i1 %18, label %19, label %51

19:                                               ; preds = %_is_fed_job.exit
  %20 = load i32, ptr %6, align 8
  %.not14 = icmp eq i32 %20, 0
  br i1 %.not14, label %21, label %51

21:                                               ; preds = %19
  %22 = load ptr, ptr @fed_mgr_fed_rec, align 8
  %.not15 = icmp eq ptr %22, null
  br i1 %.not15, label %23, label %24

23:                                               ; preds = %21
  tail call void (ptr, ...) @sched_info(ptr noundef nonnull @.str.69, ptr noundef nonnull %0) #16
  br label %51

24:                                               ; preds = %21
  %25 = tail call fastcc i32 @_validate_cluster_features(ptr noundef %1, ptr noundef null)
  %.not16 = icmp eq i32 %25, 0
  br i1 %.not16, label %27, label %26

26:                                               ; preds = %24
  tail call void (ptr, ...) @sched_info(ptr noundef nonnull @.str.70, ptr noundef nonnull %0) #16
  br label %51

27:                                               ; preds = %24
  %28 = getelementptr inbounds nuw i8, ptr %0, i64 216
  %29 = load ptr, ptr %28, align 8
  %30 = getelementptr inbounds nuw i8, ptr %29, i64 56
  tail call void @slurm_xfree(ptr noundef nonnull %30) #16
  %31 = load i8, ptr %1, align 1
  %32 = icmp eq i8 %31, 0
  br i1 %32, label %33, label %34

33:                                               ; preds = %27
  tail call void (ptr, ...) @sched_info(ptr noundef nonnull @.str.71, ptr noundef nonnull %0) #16
  br label %38

34:                                               ; preds = %27
  %35 = tail call ptr @xstrdup(ptr noundef nonnull %1) #16
  %36 = load ptr, ptr %28, align 8
  %37 = getelementptr inbounds nuw i8, ptr %36, i64 56
  store ptr %35, ptr %37, align 8
  br label %38

38:                                               ; preds = %34, %33
  %39 = load ptr, ptr @fed_mgr_cluster_rec, align 8
  %.not.i.i = icmp eq ptr %39, null
  br i1 %.not.i.i, label %fed_mgr_is_origin_job.exit.thread, label %40

40:                                               ; preds = %38
  %41 = load ptr, ptr %5, align 8
  %.not4.i.i = icmp eq ptr %41, null
  br i1 %.not4.i.i, label %44, label %42

42:                                               ; preds = %40
  %43 = load i32, ptr %8, align 8
  %.not5.i.i = icmp ult i32 %43, 67108864
  br i1 %.not5.i.i, label %44, label %fed_mgr_is_origin_job.exit

44:                                               ; preds = %42, %40
  %45 = tail call i32 @get_log_level() #16
  %46 = icmp sgt i32 %45, 5
  br i1 %46, label %47, label %fed_mgr_is_origin_job.exit.thread

47:                                               ; preds = %44
  tail call void (i32, ptr, ...) @log_var(i32 noundef 6, ptr noundef nonnull @.str.183, ptr noundef nonnull %0) #16
  br label %fed_mgr_is_origin_job.exit.thread

fed_mgr_is_origin_job.exit:                       ; preds = %42
  %48 = lshr i32 %43, 26
  %49 = getelementptr inbounds nuw i8, ptr %39, i64 192
  %50 = load i32, ptr %49, align 8
  %.not1.i.not = icmp eq i32 %50, %48
  br i1 %.not1.i.not, label %fed_mgr_is_origin_job.exit.thread, label %51

fed_mgr_is_origin_job.exit.thread:                ; preds = %44, %47, %38, %fed_mgr_is_origin_job.exit
  tail call fastcc void @_add_remove_sibling_jobs(ptr noundef nonnull %0)
  br label %51

51:                                               ; preds = %_is_fed_job.exit, %19, %26, %fed_mgr_is_origin_job.exit.thread, %fed_mgr_is_origin_job.exit, %23, %14
  %.0 = phi i32 [ 7102, %26 ], [ 0, %fed_mgr_is_origin_job.exit.thread ], [ 0, %fed_mgr_is_origin_job.exit ], [ 7103, %23 ], [ -1, %14 ], [ 2073, %19 ], [ 2073, %_is_fed_job.exit ]
  ret i32 %.0
}